target datalayout = "e-m:e-p270:32:32-p271:32:32-p272:64:64-i64:64-i128:128-f80:128-n8:16:32:64-S128"
target triple = "x86_64-pc-linux-gnu"

; Function Attrs: nounwind uwtable
define hidden zeroext i1 @Curl_auth_digest_get_pair(ptr noundef %0, ptr noundef %1, ptr noundef %2, ptr noundef %3) #0 {
  %5 = alloca i1, align 1
  %6 = alloca ptr, align 8
  %7 = alloca ptr, align 8
  %8 = alloca ptr, align 8
  %9 = alloca ptr, align 8
  %10 = alloca i32, align 4
  %11 = alloca i8, align 1
  %12 = alloca i8, align 1
  %13 = alloca i32, align 4
  store ptr %0, ptr %6, align 8, !tbaa !3
  store ptr %1, ptr %7, align 8, !tbaa !3
  store ptr %2, ptr %8, align 8, !tbaa !3
  store ptr %3, ptr %9, align 8, !tbaa !8
  call void @llvm.lifetime.start.p0(i64 4, ptr %10) #7
  call void @llvm.lifetime.start.p0(i64 1, ptr %11) #7
  store i8 0, ptr %11, align 1, !tbaa !10
  call void @llvm.lifetime.start.p0(i64 1, ptr %12) #7
  store i8 0, ptr %12, align 1, !tbaa !10
  store i32 255, ptr %10, align 4, !tbaa !12
  br label %14

14:                                               ; preds = %30, %4
  %15 = load ptr, ptr %6, align 8, !tbaa !3
  %16 = load i8, ptr %15, align 1, !tbaa !14
  %17 = sext i8 %16 to i32
  %18 = icmp ne i32 %17, 0
  br i1 %18, label %19, label %28

19:                                               ; preds = %14
  %20 = load ptr, ptr %6, align 8, !tbaa !3
  %21 = load i8, ptr %20, align 1, !tbaa !14
  %22 = sext i8 %21 to i32
  %23 = icmp ne i32 %22, 61
  br i1 %23, label %24, label %28

24:                                               ; preds = %19
  %25 = load i32, ptr %10, align 4, !tbaa !12
  %26 = add nsw i32 %25, -1
  store i32 %26, ptr %10, align 4, !tbaa !12
  %27 = icmp ne i32 %25, 0
  br label %28

28:                                               ; preds = %24, %19, %14
  %29 = phi i1 [ false, %19 ], [ false, %14 ], [ %27, %24 ]
  br i1 %29, label %30, label %36

30:                                               ; preds = %28
  %31 = load ptr, ptr %6, align 8, !tbaa !3
  %32 = getelementptr inbounds nuw i8, ptr %31, i32 1
  store ptr %32, ptr %6, align 8, !tbaa !3
  %33 = load i8, ptr %31, align 1, !tbaa !14
  %34 = load ptr, ptr %7, align 8, !tbaa !3
  %35 = getelementptr inbounds nuw i8, ptr %34, i32 1
  store ptr %35, ptr %7, align 8, !tbaa !3
  store i8 %33, ptr %34, align 1, !tbaa !14
  br label %14, !llvm.loop !15

36:                                               ; preds = %28
  %37 = load ptr, ptr %7, align 8, !tbaa !3
  store i8 0, ptr %37, align 1, !tbaa !14
  %38 = load ptr, ptr %6, align 8, !tbaa !3
  %39 = getelementptr inbounds nuw i8, ptr %38, i32 1
  store ptr %39, ptr %6, align 8, !tbaa !3
  %40 = load i8, ptr %38, align 1, !tbaa !14
  %41 = sext i8 %40 to i32
  %42 = icmp ne i32 61, %41
  br i1 %42, label %43, label %44

43:                                               ; preds = %36
  store i1 false, ptr %5, align 1
  store i32 1, ptr %13, align 4
  br label %108

44:                                               ; preds = %36
  %45 = load ptr, ptr %6, align 8, !tbaa !3
  %46 = load i8, ptr %45, align 1, !tbaa !14
  %47 = sext i8 %46 to i32
  %48 = icmp eq i32 34, %47
  br i1 %48, label %49, label %52

49:                                               ; preds = %44
  %50 = load ptr, ptr %6, align 8, !tbaa !3
  %51 = getelementptr inbounds nuw i8, ptr %50, i32 1
  store ptr %51, ptr %6, align 8, !tbaa !3
  store i8 1, ptr %11, align 1, !tbaa !10
  br label %52

52:                                               ; preds = %49, %44
  store i32 1023, ptr %10, align 4, !tbaa !12
  br label %53

53:                                               ; preds = %97, %52
  %54 = load ptr, ptr %6, align 8, !tbaa !3
  %55 = load i8, ptr %54, align 1, !tbaa !14
  %56 = sext i8 %55 to i32
  %57 = icmp ne i32 %56, 0
  br i1 %57, label %58, label %62

58:                                               ; preds = %53
  %59 = load i32, ptr %10, align 4, !tbaa !12
  %60 = add nsw i32 %59, -1
  store i32 %60, ptr %10, align 4, !tbaa !12
  %61 = icmp ne i32 %59, 0
  br label %62

62:                                               ; preds = %58, %53
  %63 = phi i1 [ false, %53 ], [ %61, %58 ]
  br i1 %63, label %64, label %100

64:                                               ; preds = %62
  %65 = load i8, ptr %12, align 1, !tbaa !10, !range !17, !noundef !18
  %66 = trunc i8 %65 to i1
  br i1 %66, label %92, label %67

67:                                               ; preds = %64
  %68 = load ptr, ptr %6, align 8, !tbaa !3
  %69 = load i8, ptr %68, align 1, !tbaa !14
  %70 = sext i8 %69 to i32
  switch i32 %70, label %91 [
    i32 92, label %71
    i32 44, label %76
    i32 13, label %81
    i32 10, label %81
    i32 34, label %86
  ]

71:                                               ; preds = %67
  %72 = load i8, ptr %11, align 1, !tbaa !10, !range !17, !noundef !18
  %73 = trunc i8 %72 to i1
  br i1 %73, label %74, label %75

74:                                               ; preds = %71
  store i8 1, ptr %12, align 1, !tbaa !10
  br label %97

75:                                               ; preds = %71
  br label %91

76:                                               ; preds = %67
  %77 = load i8, ptr %11, align 1, !tbaa !10, !range !17, !noundef !18
  %78 = trunc i8 %77 to i1
  br i1 %78, label %80, label %79

79:                                               ; preds = %76
  store i32 0, ptr %10, align 4, !tbaa !12
  br label %97

80:                                               ; preds = %76
  br label %91

81:                                               ; preds = %67, %67
  %82 = load i8, ptr %11, align 1, !tbaa !10, !range !17, !noundef !18
  %83 = trunc i8 %82 to i1
  br i1 %83, label %84, label %85

84:                                               ; preds = %81
  store i1 false, ptr %5, align 1
  store i32 1, ptr %13, align 4
  br label %108

85:                                               ; preds = %81
  store i32 0, ptr %10, align 4, !tbaa !12
  br label %97

86:                                               ; preds = %67
  %87 = load i8, ptr %11, align 1, !tbaa !10, !range !17, !noundef !18
  %88 = trunc i8 %87 to i1
  br i1 %88, label %89, label %90

89:                                               ; preds = %86
  store i32 0, ptr %10, align 4, !tbaa !12
  br label %97

90:                                               ; preds = %86
  store i1 false, ptr %5, align 1
  store i32 1, ptr %13, align 4
  br label %108

91:                                               ; preds = %67, %80, %75
  br label %92

92:                                               ; preds = %91, %64
  store i8 0, ptr %12, align 1, !tbaa !10
  %93 = load ptr, ptr %6, align 8, !tbaa !3
  %94 = load i8, ptr %93, align 1, !tbaa !14
  %95 = load ptr, ptr %8, align 8, !tbaa !3
  %96 = getelementptr inbounds nuw i8, ptr %95, i32 1
  store ptr %96, ptr %8, align 8, !tbaa !3
  store i8 %94, ptr %95, align 1, !tbaa !14
  br label %97

97:                                               ; preds = %92, %89, %85, %79, %74
  %98 = load ptr, ptr %6, align 8, !tbaa !3
  %99 = getelementptr inbounds nuw i8, ptr %98, i32 1
  store ptr %99, ptr %6, align 8, !tbaa !3
  br label %53, !llvm.loop !19

100:                                              ; preds = %62
  %101 = load i8, ptr %12, align 1, !tbaa !10, !range !17, !noundef !18
  %102 = trunc i8 %101 to i1
  br i1 %102, label %103, label %104

103:                                              ; preds = %100
  store i1 false, ptr %5, align 1
  store i32 1, ptr %13, align 4
  br label %108

104:                                              ; preds = %100
  %105 = load ptr, ptr %8, align 8, !tbaa !3
  store i8 0, ptr %105, align 1, !tbaa !14
  %106 = load ptr, ptr %6, align 8, !tbaa !3
  %107 = load ptr, ptr %9, align 8, !tbaa !8
  store ptr %106, ptr %107, align 8, !tbaa !3
  store i1 true, ptr %5, align 1
  store i32 1, ptr %13, align 4
  br label %108

108:                                              ; preds = %104, %103, %90, %84, %43
  call void @llvm.lifetime.end.p0(i64 1, ptr %12) #7
  call void @llvm.lifetime.end.p0(i64 1, ptr %11) #7
  call void @llvm.lifetime.end.p0(i64 4, ptr %10) #7
  %109 = load i1, ptr %5, align 1
  ret i1 %109
}